; Function Attrs: nounwind uwtable
define internal range(i32 -1, -2147483648) i32 @lp_longlong(ptr noundef readonly captures(none) %0, ptr noundef %1, ptr noundef %2, ptr noundef readonly captures(none) %3) #0 {
  %5 = getelementptr i8, ptr %2, i64 8
  %.val.i = load ptr, ptr %5, align 8, !tbaa !24
  %6 = getelementptr i8, ptr %.val.i, i64 168
  %.val11.i = load i64, ptr %6, align 8, !tbaa !51
  %7 = and i64 %.val11.i, 16777216
  %.not.i12 = icmp eq i64 %7, 0
  br i1 %.not.i12, label %8, label %12

8:                                                ; preds = %4
  %9 = tail call i32 @PyIndex_Check(ptr noundef nonnull %2) #7
  %.not10.i = icmp eq i32 %9, 0
  br i1 %.not10.i, label %get_pylong.exit.thread15, label %get_pylong.exit

get_pylong.exit.thread15:                         ; preds = %8
  %10 = getelementptr inbounds nuw i8, ptr %0, i64 24
  %11 = load ptr, ptr %10, align 8, !tbaa !16
  tail call void @PyErr_SetString(ptr noundef %11, ptr noundef nonnull @.str.50) #7
  br label %32

12:                                               ; preds = %4
  %13 = load i32, ptr %2, align 8, !tbaa !18
  %14 = icmp slt i32 %13, 0
  br i1 %14, label %get_pylong.exit.thread, label %15

15:                                               ; preds = %12
  %16 = add nuw i32 %13, 1
  store i32 %16, ptr %2, align 8, !tbaa !18
  br label %get_pylong.exit.thread

get_pylong.exit:                                  ; preds = %8
  %17 = tail call ptr @_PyNumber_Index(ptr noundef nonnull %2) #7
  %18 = icmp eq ptr %17, null
  br i1 %18, label %32, label %get_pylong.exit.thread

get_pylong.exit.thread:                           ; preds = %15, %12, %get_pylong.exit
  %.08.i14 = phi ptr [ %17, %get_pylong.exit ], [ %2, %12 ], [ %2, %15 ]
  %19 = tail call i32 @_PyLong_AsByteArray(ptr noundef nonnull %.08.i14, ptr noundef %1, i64 noundef 8, i32 noundef 1, i32 noundef 1, i32 noundef 0) #7
  %20 = load i32, ptr %.08.i14, align 8, !tbaa !18
  %.not.i = icmp sgt i32 %20, -1
  br i1 %.not.i, label %21, label %Py_DECREF.exit

21:                                               ; preds = %get_pylong.exit.thread
  %22 = add nsw i32 %20, -1
  store i32 %22, ptr %.08.i14, align 8, !tbaa !18
  %23 = icmp eq i32 %22, 0
  br i1 %23, label %24, label %Py_DECREF.exit

24:                                               ; preds = %21
  tail call void @_Py_Dealloc(ptr noundef nonnull %.08.i14) #7
  br label %Py_DECREF.exit

Py_DECREF.exit:                                   ; preds = %get_pylong.exit.thread, %21, %24
  %25 = icmp slt i32 %19, 0
  br i1 %25, label %26, label %32

26:                                               ; preds = %Py_DECREF.exit
  %27 = getelementptr inbounds nuw i8, ptr %0, i64 24
  %28 = load ptr, ptr %27, align 8, !tbaa !16
  %29 = load i8, ptr %3, align 8, !tbaa !49
  %30 = sext i8 %29 to i32
  %31 = tail call ptr (ptr, ptr, ...) @PyErr_Format(ptr noundef %28, ptr noundef nonnull @.str.54, i32 noundef %30, i64 noundef -9223372036854775808, i64 noundef 9223372036854775807) #7
  br label %32

32:                                               ; preds = %get_pylong.exit.thread15, %Py_DECREF.exit, %get_pylong.exit, %26
  %.0 = phi i32 [ -1, %26 ], [ -1, %get_pylong.exit ], [ %19, %Py_DECREF.exit ], [ -1, %get_pylong.exit.thread15 ]
  ret i32 %.0
}